; Function Attrs: mustprogress nofree norecurse nosync nounwind memory(read, argmem: readwrite, inaccessiblemem: none) uwtable
define dso_local void @_ZNK15cmStateSnapshot18GetCallStackParentEv(ptr dead_on_unwind noalias writable writeonly sret(%class.cmStateSnapshot) align 8 captures(none) initializes((0, 24)) %0, ptr noundef nonnull readonly align 8 captures(none) dereferenceable(24) %1) local_unnamed_addr #8 align 2 {
  %3 = getelementptr inbounds nuw i8, ptr %0, i64 8
  %4 = getelementptr inbounds nuw i8, ptr %1, i64 8
  tail call void @llvm.memset.p0.i64(ptr noundef nonnull align 8 dereferenceable(24) %0, i8 0, i64 24, i1 false)
  %.sroa.08.0.copyload = load ptr, ptr %4, align 8
  %.sroa.11.0..sroa_idx = getelementptr inbounds nuw i8, ptr %1, i64 16
  %5 = load ptr, ptr %.sroa.08.0.copyload, align 8
  %invariant.gep = getelementptr i8, ptr %5, i64 -128
  %6 = getelementptr inbounds nuw i8, ptr %.sroa.08.0.copyload, i64 24
  br label %7

7:                                                ; preds = %.critedge, %2
  %.sroa.11.0.in = phi ptr [ %.sroa.11.0..sroa_idx, %2 ], [ %11, %.critedge ]
  %.sroa.11.0 = load i64, ptr %.sroa.11.0.in, align 8
  %gep = getelementptr %"struct.cmStateDetail::SnapshotDataType", ptr %invariant.gep, i64 %.sroa.11.0
  %8 = load i32, ptr %gep, align 8
  switch i32 %8, label %12 [
    i32 7, label %.critedge
    i32 8, label %.critedge
    i32 1, label %.loopexit
    i32 0, label %.loopexit
  ]

.critedge:                                        ; preds = %7, %7
  %9 = load ptr, ptr %6, align 8
  %10 = getelementptr i64, ptr %9, i64 %.sroa.11.0
  %11 = getelementptr i8, ptr %10, i64 -8
  br label %7, !llvm.loop !7

12:                                               ; preds = %7
  %13 = load ptr, ptr %6, align 8
  %invariant.gep29 = getelementptr i8, ptr %13, i64 -8
  br label %.critedge2

.critedge2:                                       ; preds = %.critedge2, %12
  %.sroa.11.0.pn = phi i64 [ %.sroa.11.0, %12 ], [ %.sroa.11.1, %.critedge2 ]
  %gep30 = getelementptr i64, ptr %invariant.gep29, i64 %.sroa.11.0.pn
  %.sroa.11.1 = load i64, ptr %gep30, align 8
  %gep32 = getelementptr %"struct.cmStateDetail::SnapshotDataType", ptr %invariant.gep, i64 %.sroa.11.1
  %14 = load i32, ptr %gep32, align 8
  %.off = add i32 %14, -7
  %switch = icmp ult i32 %.off, 2
  br i1 %switch, label %.critedge2, label %15, !llvm.loop !8

15:                                               ; preds = %.critedge2
  %16 = icmp eq i64 %.sroa.11.1, 0
  br i1 %16, label %.loopexit, label %17

17:                                               ; preds = %15
  %18 = load ptr, ptr %1, align 8
  store ptr %18, ptr %0, align 8
  store ptr %.sroa.08.0.copyload, ptr %3, align 8
  %.sroa.3.0..sroa_idx = getelementptr inbounds nuw i8, ptr %0, i64 16
  store i64 %.sroa.11.1, ptr %.sroa.3.0..sroa_idx, align 8
  br label %.loopexit

.loopexit:                                        ; preds = %7, %7, %15, %17
  ret void
}